target datalayout = "e-m:e-p270:32:32-p271:32:32-p272:64:64-i64:64-i128:128-f80:128-n8:16:32:64-S128"
target triple = "x86_64-pc-linux-gnu"

%struct.rusage = type { %struct.timeval, %struct.timeval, %union.anon, %union.anon.0, %union.anon.1, %union.anon.2, %union.anon.3, %union.anon.4, %union.anon.5, %union.anon.6, %union.anon.7, %union.anon.8, %union.anon.9, %union.anon.10, %union.anon.11, %union.anon.12 }
%struct.timeval = type { i64, i64 }
%union.anon = type { i64 }
%union.anon.0 = type { i64 }
%union.anon.1 = type { i64 }
%union.anon.2 = type { i64 }
%union.anon.3 = type { i64 }
%union.anon.4 = type { i64 }
%union.anon.5 = type { i64 }
%union.anon.6 = type { i64 }
%union.anon.7 = type { i64 }
%union.anon.8 = type { i64 }
%union.anon.9 = type { i64 }
%union.anon.10 = type { i64 }
%union.anon.11 = type { i64 }
%union.anon.12 = type { i64 }
%struct.Query = type { i32, i32, i32, i64, i8, ptr, i32, i8, i8, i8, i8, i8, i8, i8, i8, i8, i8, i8, ptr, ptr, ptr, ptr, ptr, i32, ptr, ptr, i32, ptr, ptr, ptr, ptr, ptr, i8, ptr, ptr, ptr, ptr, ptr, ptr, ptr, i32, ptr, ptr, ptr, ptr, i32, i32 }

@Debug_pretty_print = external global i8, align 1
@log_planner_stats = external global i8, align 1
@.str.7 = private unnamed_addr constant [19 x i8] c"PLANNER STATISTICS\00", align 1
@Debug_print_plan = external global i8, align 1
@.str.8 = private unnamed_addr constant [5 x i8] c"plan\00", align 1
@Save_r = internal global %struct.rusage zeroinitializer, align 8
@Save_t = internal global %struct.timeval zeroinitializer, align 8

; Function Attrs: nounwind uwtable
define dso_local void @ResetUsage() #0 {
  %1 = call i32 @getrusage(i32 noundef 0, ptr noundef @Save_r) #16
  %2 = call i32 @gettimeofday(ptr noundef @Save_t, ptr noundef null) #16
  ret void
}

; Function Attrs: nounwind uwtable
define dso_local ptr @pg_plan_query(ptr noundef %0, ptr noundef %1, i32 noundef %2, ptr noundef %3) #0 {
  %5 = alloca ptr, align 8
  %6 = alloca ptr, align 8
  %7 = alloca ptr, align 8
  %8 = alloca i32, align 4
  %9 = alloca ptr, align 8
  %10 = alloca ptr, align 8
  %11 = alloca i32, align 4
  store ptr %0, ptr %6, align 8
  store ptr %1, ptr %7, align 8
  store i32 %2, ptr %8, align 4
  store ptr %3, ptr %9, align 8
  call void @llvm.lifetime.start.p0(i64 8, ptr %10) #16
  %12 = load ptr, ptr %6, align 8
  %13 = getelementptr inbounds nuw %struct.Query, ptr %12, i32 0, i32 1
  %14 = load i32, ptr %13, align 4
  %15 = icmp eq i32 %14, 6
  br i1 %15, label %16, label %17

16:                                               ; preds = %4
  store ptr null, ptr %5, align 8
  store i32 1, ptr %11, align 4
  br label %45

17:                                               ; preds = %4
  br label %18

18:                                               ; preds = %17
  br label %19

19:                                               ; preds = %18
  br label %20

20:                                               ; preds = %19
  %21 = load i8, ptr @log_planner_stats, align 1, !range !4, !noundef !5
  %22 = trunc i8 %21 to i1
  br i1 %22, label %23, label %24

23:                                               ; preds = %20
  call void @ResetUsage()
  br label %24

24:                                               ; preds = %23, %20
  %25 = load ptr, ptr %6, align 8
  %26 = load ptr, ptr %7, align 8
  %27 = load i32, ptr %8, align 4
  %28 = load ptr, ptr %9, align 8
  %29 = call ptr @planner(ptr noundef %25, ptr noundef %26, i32 noundef %27, ptr noundef %28)
  store ptr %29, ptr %10, align 8
  %30 = load i8, ptr @log_planner_stats, align 1, !range !4, !noundef !5
  %31 = trunc i8 %30 to i1
  br i1 %31, label %32, label %33

32:                                               ; preds = %24
  call void @ShowUsage(ptr noundef @.str.7)
  br label %33

33:                                               ; preds = %32, %24
  %34 = load i8, ptr @Debug_print_plan, align 1, !range !4, !noundef !5
  %35 = trunc i8 %34 to i1
  br i1 %35, label %36, label %40

36:                                               ; preds = %33
  %37 = load ptr, ptr %10, align 8
  %38 = load i8, ptr @Debug_pretty_print, align 1, !range !4, !noundef !5
  %39 = trunc i8 %38 to i1
  call void @elog_node_display(i32 noundef 15, ptr noundef @.str.8, ptr noundef %37, i1 noundef zeroext %39)
  br label %40

40:                                               ; preds = %36, %33
  br label %41

41:                                               ; preds = %40
  br label %42

42:                                               ; preds = %41
  br label %43

43:                                               ; preds = %42
  %44 = load ptr, ptr %10, align 8
  store ptr %44, ptr %5, align 8
  store i32 1, ptr %11, align 4
  br label %45

45:                                               ; preds = %43, %16
  call void @llvm.lifetime.end.p0(i64 8, ptr %10) #16
  %46 = load ptr, ptr %5, align 8
  ret ptr %46
}