; Function Attrs: nounwind uwtable
define dso_local ptr @pg_plan_query(ptr noundef %0, ptr noundef %1, i32 noundef %2, ptr noundef %3) local_unnamed_addr #0 {
  %5 = getelementptr inbounds nuw i8, ptr %0, i64 4
  %6 = load i32, ptr %5, align 4
  %7 = icmp eq i32 %6, 6
  br i1 %7, label %25, label %8

8:                                                ; preds = %4
  %9 = load i8, ptr @log_planner_stats, align 1, !range !5, !noundef !6
  %10 = trunc nuw i8 %9 to i1
  br i1 %10, label %11, label %14

11:                                               ; preds = %8
  %12 = tail call i32 @getrusage(i32 noundef 0, ptr noundef nonnull @Save_r) #22
  %13 = tail call i32 @gettimeofday(ptr noundef nonnull @Save_t, ptr noundef null) #22
  br label %14

14:                                               ; preds = %11, %8
  %15 = tail call ptr @planner(ptr noundef nonnull %0, ptr noundef %1, i32 noundef %2, ptr noundef %3) #22
  %16 = load i8, ptr @log_planner_stats, align 1, !range !5, !noundef !6
  %17 = trunc nuw i8 %16 to i1
  br i1 %17, label %18, label %19

18:                                               ; preds = %14
  tail call void @ShowUsage(ptr noundef nonnull @.str.7)
  br label %19

19:                                               ; preds = %18, %14
  %20 = load i8, ptr @Debug_print_plan, align 1, !range !5, !noundef !6
  %21 = trunc nuw i8 %20 to i1
  br i1 %21, label %22, label %25

22:                                               ; preds = %19
  %23 = load i8, ptr @Debug_pretty_print, align 1, !range !5, !noundef !6
  %24 = trunc nuw i8 %23 to i1
  tail call void @elog_node_display(i32 noundef 15, ptr noundef nonnull @.str.8, ptr noundef %15, i1 noundef zeroext %24) #22
  br label %25

25:                                               ; preds = %22, %19, %4
  %.0 = phi ptr [ null, %4 ], [ %15, %19 ], [ %15, %22 ]
  ret ptr %.0
}